Certificate:
    Data:
        Version: 3 (0x2)
        Serial Number:
            e6:71:60:d0:b8:92:8b:b6:21:f6:08:86:89:63:15:25
    Signature Algorithm: sha256WithRSAEncryption
        Issuer: CN=rcs-vpn-ca
        Validity
            Not Before: Nov 27 11:05:19 2022 GMT
            Not After : Mar  1 11:05:19 2025 GMT
        Subject: CN=server
        Subject Public Key Info:
            Public Key Algorithm: rsaEncryption
                RSA Public-Key: (2048 bit)
                Modulus:
                    00:e0:10:8a:0e:61:9e:5e:ed:f9:c3:01:09:ff:d9:
                    19:fc:2c:0b:30:4e:67:4a:9c:94:89:41:d5:fe:49:
                    c4:af:b8:ae:d7:aa:01:d9:20:0b:82:77:ad:0d:d0:
                    ab:e1:99:c6:7f:ac:f6:c2:03:40:dc:c3:c3:15:9c:
                    eb:dd:cc:f2:79:02:0d:35:24:5c:c3:73:e2:7b:a0:
                    e9:2e:de:23:21:57:44:79:9c:87:ca:bd:b3:c7:27:
                    1c:a8:07:16:3c:3d:96:cd:7e:da:7d:b0:7c:0c:21:
                    63:69:86:6c:98:c6:ac:dd:22:5c:52:8f:ba:5c:fd:
                    70:89:8e:02:67:66:36:0c:a8:24:67:6e:2c:0d:4c:
                    34:b1:6c:fd:52:e4:6f:0e:47:66:44:d4:4d:19:9c:
                    60:70:27:d5:89:08:0b:df:43:f5:3e:61:0e:ac:ec:
                    7c:89:0c:8e:4f:05:fb:6b:0e:91:2c:94:f2:54:bd:
                    45:07:5c:69:5a:87:bf:b7:69:28:88:fb:5e:9e:bc:
                    7b:3d:2f:96:03:59:17:f9:fa:2f:f6:90:77:bf:79:
                    bc:23:da:ed:f8:24:cf:cb:13:b4:1d:67:2f:84:8b:
                    4f:f3:a6:20:a6:19:fe:a2:04:0c:6e:63:e0:e1:49:
                    4d:ae:71:d2:44:79:26:4c:81:95:27:b1:8e:4c:30:
                    52:81
                Exponent: 65537 (0x10001)
        X509v3 extensions:
            X509v3 Basic Constraints: 
                CA:FALSE
            X509v3 Subject Key Identifier: 
                55:0E:31:0E:F4:40:03:D5:3F:71:24:6A:0E:2D:E1:35:68:2A:29:A8
            X509v3 Authority Key Identifier: 
                keyid:01:B2:3C:B3:8B:C9:E1:7E:0B:30:E8:86:8B:81:4D:A1:16:62:84:0A
                DirName:/CN=rcs-vpn-ca
                serial:CF:5B:7F:7E:58:31:DB:1C

            X509v3 Extended Key Usage: 
                TLS Web Server Authentication
            X509v3 Key Usage: 
                Digital Signature, Key Encipherment
            X509v3 Subject Alternative Name: 
                DNS:server
    Signature Algorithm: sha256WithRSAEncryption
         9e:bc:0a:b6:9e:61:42:b8:1b:e3:e4:7b:33:f1:24:90:33:57:
         10:a5:c0:76:09:a7:93:dd:85:33:42:9a:f8:3f:35:8d:7d:f6:
         0c:f5:e7:ae:7f:45:bb:8b:87:c7:96:0e:56:3a:74:52:e5:ae:
         1b:76:c6:2b:a9:bb:0e:5f:87:78:08:87:7c:c3:aa:a6:5f:60:
         bf:ff:f8:0b:89:f9:21:26:83:04:b4:13:9f:b0:8c:7f:a1:e0:
         98:e6:11:fb:f7:82:4c:b1:80:86:93:d9:fc:04:3a:40:c9:2b:
         eb:53:c3:d7:24:6c:6e:3b:a8:a7:4a:45:24:af:51:be:e0:a0:
         27:e7:3e:d0:df:bd:af:21:73:fb:03:62:f9:95:84:38:f9:9d:
         c7:d0:5c:c7:e4:91:98:00:6f:68:d6:65:1f:b5:04:fd:e4:a7:
         f5:7c:95:88:81:14:6d:11:be:c8:8a:91:13:a8:9a:df:5f:5f:
         ec:b0:0e:c8:ce:11:7f:85:fa:5c:ef:80:e8:24:ba:5a:08:03:
         b3:06:60:e0:2f:ed:e6:fa:7a:37:31:bc:0f:2f:4d:d4:f9:c3:
         bc:93:dd:19:69:b4:30:9b:52:59:16:f0:1f:cb:ca:bd:2f:81:
         e8:4d:b6:de:25:68:75:bd:89:72:86:39:99:a9:10:86:eb:9f:
         2d:fd:b0:cb
-----BEGIN CERTIFICATE-----
MIIDWzCCAkOgAwIBAgIRAOZxYNC4kou2IfYIholjFSUwDQYJKoZIhvcNAQELBQAw
FTETMBEGA1UEAwwKcmNzLXZwbi1jYTAeFw0yMjExMjcxMTA1MTlaFw0yNTAzMDEx
MTA1MTlaMBExDzANBgNVBAMMBnNlcnZlcjCCASIwDQYJKoZIhvcNAQEBBQADggEP
ADCCAQoCggEBAOAQig5hnl7t+cMBCf/ZGfwsCzBOZ0qclIlB1f5JxK+4rteqAdkg
C4J3rQ3Qq+GZxn+s9sIDQNzDwxWc693M8nkCDTUkXMNz4nug6S7eIyFXRHmch8q9
s8cnHKgHFjw9ls1+2n2wfAwhY2mGbJjGrN0iXFKPulz9cImOAmdmNgyoJGduLA1M
NLFs/VLkbw5HZkTUTRmcYHAn1YkIC99D9T5hDqzsfIkMjk8F+2sOkSyU8lS9RQdc
aVqHv7dpKIj7Xp68ez0vlgNZF/n6L/aQd795vCPa7fgkz8sTtB1nL4SLT/OmIKYZ
/qIEDG5j4OFJTa5x0kR5JkyBlSexjkwwUoECAwEAAaOBqTCBpjAJBgNVHRMEAjAA
MB0GA1UdDgQWBBRVDjEO9EAD1T9xJGoOLeE1aCopqDBFBgNVHSMEPjA8gBQBsjyz
i8nhfgsw6IaLgU2hFmKECqEZpBcwFTETMBEGA1UEAwwKcmNzLXZwbi1jYYIJAM9b
f35YMdscMBMGA1UdJQQMMAoGCCsGAQUFBwMBMAsGA1UdDwQEAwIFoDARBgNVHREE
CjAIggZzZXJ2ZXIwDQYJKoZIhvcNAQELBQADggEBAJ68CraeYUK4G+PkezPxJJAz
VxClwHYJp5PdhTNCmvg/NY199gz1565/RbuLh8eWDlY6dFLlrht2xiupuw5fh3gI
h3zDqqZfYL//+AuJ+SEmgwS0E5+wjH+h4JjmEfv3gkyxgIaT2fwEOkDJK+tTw9ck
bG47qKdKRSSvUb7goCfnPtDfva8hc/sDYvmVhDj5ncfQXMfkkZgAb2jWZR+1BP3k
p/V8lYiBFG0RvsiKkROomt9fX+ywDsjOEX+F+lzvgOgkuloIA7MGYOAv7eb6ejcx
vA8vTdT5w7yT3RlptDCbUlkW8B/Lyr0vgehNtt4laHW9iXKGOZmpEIbrny39sMs=
-----END CERTIFICATE-----
